; ModuleID = 'bench/postgres/original/pg_backup_utils.ll'
source_filename = "bench/postgres/original/pg_backup_utils.ll"
target datalayout = "e-m:e-p270:32:32-p271:32:32-p272:64:64-i64:64-i128:128-f80:128-n8:16:32:64-S128"
target triple = "x86_64-pc-linux-gnu"

%struct.anon = type { ptr, ptr }

@progname = dso_local local_unnamed_addr global ptr null, align 8
@.str = private unnamed_addr constant [9 x i8] c"pre-data\00", align 1
@.str.1 = private unnamed_addr constant [5 x i8] c"data\00", align 1
@.str.2 = private unnamed_addr constant [10 x i8] c"post-data\00", align 1
@.str.3 = private unnamed_addr constant [32 x i8] c"unrecognized section name: \22%s\22\00", align 1
@.str.4 = private unnamed_addr constant [38 x i8] c"Try \22%s --help\22 for more information.\00", align 1
@on_exit_nicely_index = internal unnamed_addr global i32 0, align 4
@.str.5 = private unnamed_addr constant [28 x i8] c"out of on_exit_nicely slots\00", align 1
@on_exit_nicely_list = internal unnamed_addr global [20 x %struct.anon] zeroinitializer, align 16

; Function Attrs: nounwind uwtable
define dso_local void @set_dump_section(ptr noundef %0, ptr noundef captures(none) %1) local_unnamed_addr #0 {
  %3 = load i32, ptr %1, align 4
  %4 = icmp eq i32 %3, 255
  br i1 %4, label %5, label %6

5:                                                ; preds = %2
  store i32 0, ptr %1, align 4
  br label %6

6:                                                ; preds = %5, %2
  %7 = phi i32 [ 0, %5 ], [ %3, %2 ]
  %8 = tail call i32 @strcmp(ptr noundef nonnull dereferenceable(1) %0, ptr noundef nonnull dereferenceable(9) @.str) #5
  %9 = icmp eq i32 %8, 0
  br i1 %9, label %18, label %10

10:                                               ; preds = %6
  %11 = tail call i32 @strcmp(ptr noundef nonnull dereferenceable(1) %0, ptr noundef nonnull dereferenceable(5) @.str.1) #5
  %12 = icmp eq i32 %11, 0
  br i1 %12, label %18, label %13

13:                                               ; preds = %10
  %14 = tail call i32 @strcmp(ptr noundef nonnull dereferenceable(1) %0, ptr noundef nonnull dereferenceable(10) @.str.2) #5
  %15 = icmp eq i32 %14, 0
  br i1 %15, label %18, label %16

16:                                               ; preds = %13
  tail call void (i32, i32, ptr, ...) @pg_log_generic(i32 noundef 4, i32 noundef 0, ptr noundef nonnull @.str.3, ptr noundef nonnull %0) #6
  %17 = load ptr, ptr @progname, align 8
  tail call void (i32, i32, ptr, ...) @pg_log_generic(i32 noundef 4, i32 noundef 2, ptr noundef nonnull @.str.4, ptr noundef %17) #6
  tail call void @exit_nicely(i32 noundef 1) #7
  unreachable

18:                                               ; preds = %13, %10, %6
  %.sink9 = phi i32 [ 1, %6 ], [ 2, %10 ], [ 4, %13 ]
  %19 = or i32 %7, %.sink9
  store i32 %19, ptr %1, align 4
  ret void
}

; Function Attrs: mustprogress nofree nounwind willreturn memory(argmem: read)
declare i32 @strcmp(ptr noundef captures(none), ptr noundef captures(none)) local_unnamed_addr #1

declare void @pg_log_generic(i32 noundef, i32 noundef, ptr noundef, ...) local_unnamed_addr #2

; Function Attrs: noreturn nounwind uwtable
define dso_local void @exit_nicely(i32 noundef %0) local_unnamed_addr #3 {
  %2 = load i32, ptr @on_exit_nicely_index, align 4
  %.06 = add i32 %2, -1
  %3 = icmp sgt i32 %.06, -1
  br i1 %3, label %.lr.ph.preheader, label %._crit_edge

.lr.ph.preheader:                                 ; preds = %1
  %4 = zext nneg i32 %.06 to i64
  br label %.lr.ph

.lr.ph:                                           ; preds = %.lr.ph.preheader, %.lr.ph
  %indvars.iv = phi i64 [ %4, %.lr.ph.preheader ], [ %indvars.iv.next, %.lr.ph ]
  %5 = getelementptr inbounds nuw [20 x %struct.anon], ptr @on_exit_nicely_list, i64 0, i64 %indvars.iv
  %6 = load ptr, ptr %5, align 16
  %7 = getelementptr inbounds nuw i8, ptr %5, i64 8
  %8 = load ptr, ptr %7, align 8
  tail call void %6(i32 noundef %0, ptr noundef %8) #6
  %indvars.iv.next = add nsw i64 %indvars.iv, -1
  %.not = icmp eq i64 %indvars.iv, 0
  br i1 %.not, label %._crit_edge, label %.lr.ph, !llvm.loop !4

._crit_edge:                                      ; preds = %.lr.ph, %1
  tail call void @exit(i32 noundef %0) #8
  unreachable
}

; Function Attrs: nounwind uwtable
define dso_local void @on_exit_nicely(ptr noundef %0, ptr noundef %1) local_unnamed_addr #0 {
  %3 = load i32, ptr @on_exit_nicely_index, align 4
  %4 = icmp sgt i32 %3, 19
  br i1 %4, label %5, label %6

5:                                                ; preds = %2
  tail call void (i32, i32, ptr, ...) @pg_log_generic(i32 noundef 4, i32 noundef 0, ptr noundef nonnull @.str.5) #6
  tail call void @exit_nicely(i32 noundef 1) #7
  unreachable

6:                                                ; preds = %2
  %7 = sext i32 %3 to i64
  %8 = getelementptr inbounds [20 x %struct.anon], ptr @on_exit_nicely_list, i64 0, i64 %7
  store ptr %0, ptr %8, align 16
  %9 = getelementptr inbounds [20 x %struct.anon], ptr @on_exit_nicely_list, i64 0, i64 %7, i32 1
  store ptr %1, ptr %9, align 8
  %10 = add nsw i32 %3, 1
  store i32 %10, ptr @on_exit_nicely_index, align 4
  ret void
}

; Function Attrs: nofree noreturn nounwind
declare void @exit(i32 noundef) local_unnamed_addr #4


!llvm.module.flags = !{!0, !1, !2, !3}

!0 = !{i32 1, !"wchar_size", i32 4}
!1 = !{i32 8, !"PIC Level", i32 2}
!2 = !{i32 7, !"PIE Level", i32 2}
!3 = !{i32 7, !"uwtable", i32 2}
!4 = distinct !{!4, !5}
!5 = !{!"llvm.loop.mustprogress"}
